target datalayout = "e-m:e-p270:32:32-p271:32:32-p272:64:64-i64:64-i128:128-f80:128-n8:16:32:64-S128"
target triple = "x86_64-unknown-linux-gnu"

%"class.v8::Local" = type { %"class.v8::LocalBase" }
%"class.v8::LocalBase" = type { %"class.v8::IndirectHandleBase" }
%"class.v8::IndirectHandleBase" = type { ptr }
%"struct.v8::FastOneByteString" = type { ptr, i32 }

; Function Attrs: mustprogress nounwind uwtable
define internal noundef i32 @_ZN4node6Buffer12_GLOBAL__N_118FastByteLengthUtf8EN2v85LocalINS2_5ValueEEERKNS2_17FastOneByteStringE(ptr %receiver.coerce, ptr noundef nonnull align 8 dereferenceable(16) %source) #4 {
entry:
  %receiver = alloca %"class.v8::Local", align 8
  %source.addr = alloca ptr, align 8
  %result = alloca i32, align 4
  %length = alloca i32, align 4
  %data = alloca ptr, align 8
  %i = alloca i32, align 4
  %coerce.dive = getelementptr inbounds %"class.v8::Local", ptr %receiver, i32 0, i32 0
  %coerce.dive1 = getelementptr inbounds %"class.v8::LocalBase", ptr %coerce.dive, i32 0, i32 0
  %coerce.dive2 = getelementptr inbounds %"class.v8::IndirectHandleBase", ptr %coerce.dive1, i32 0, i32 0
  store ptr %receiver.coerce, ptr %coerce.dive2, align 8
  store ptr %source, ptr %source.addr, align 8
  store i32 0, ptr %result, align 4
  %0 = load ptr, ptr %source.addr, align 8
  %length3 = getelementptr inbounds %"struct.v8::FastOneByteString", ptr %0, i32 0, i32 1
  %1 = load i32, ptr %length3, align 8
  store i32 %1, ptr %length, align 4
  %2 = load ptr, ptr %source.addr, align 8
  %data4 = getelementptr inbounds %"struct.v8::FastOneByteString", ptr %2, i32 0, i32 0
  %3 = load ptr, ptr %data4, align 8
  store ptr %3, ptr %data, align 8
  store i32 0, ptr %i, align 4
  br label %for.cond

for.cond:                                         ; preds = %for.inc, %entry
  %4 = load i32, ptr %i, align 4
  %5 = load i32, ptr %length, align 4
  %cmp = icmp ult i32 %4, %5
  br i1 %cmp, label %for.body, label %for.end

for.body:                                         ; preds = %for.cond
  %6 = load ptr, ptr %data, align 8
  %7 = load i32, ptr %i, align 4
  %idxprom = zext i32 %7 to i64
  %arrayidx = getelementptr inbounds i8, ptr %6, i64 %idxprom
  %8 = load i8, ptr %arrayidx, align 1
  %conv = zext i8 %8 to i32
  %shr = ashr i32 %conv, 7
  %9 = load i32, ptr %result, align 4
  %add = add i32 %9, %shr
  store i32 %add, ptr %result, align 4
  br label %for.inc

for.inc:                                          ; preds = %for.body
  %10 = load i32, ptr %i, align 4
  %inc = add i32 %10, 1
  store i32 %inc, ptr %i, align 4
  br label %for.cond, !llvm.loop !5

for.end:                                          ; preds = %for.cond
  %11 = load i32, ptr %length, align 4
  %12 = load i32, ptr %result, align 4
  %add5 = add i32 %12, %11
  store i32 %add5, ptr %result, align 4
  %13 = load i32, ptr %result, align 4
  ret i32 %13
}