; Function Attrs: mustprogress nofree norecurse nosync nounwind willreturn memory(read, inaccessiblemem: none) uwtable
define internal noundef i32 @_ZN4node6Buffer12_GLOBAL__N_118FastByteLengthUtf8EN2v85LocalINS2_5ValueEEERKNS2_17FastOneByteStringE(ptr nocapture readnone %receiver.coerce, ptr nocapture noundef nonnull readonly align 8 dereferenceable(16) %source) #8 {
entry:
  %length3 = getelementptr inbounds i8, ptr %source, i64 8
  %0 = load i32, ptr %length3, align 8
  %1 = load ptr, ptr %source, align 8
  %cmp7.not = icmp eq i32 %0, 0
  br i1 %cmp7.not, label %for.end, label %for.body.preheader

for.body.preheader:                               ; preds = %entry
  %wide.trip.count = zext i32 %0 to i64
  br label %for.body

for.body:                                         ; preds = %for.body.preheader, %for.body
  %indvars.iv = phi i64 [ 0, %for.body.preheader ], [ %indvars.iv.next, %for.body ]
  %result.08 = phi i32 [ 0, %for.body.preheader ], [ %add, %for.body ]
  %arrayidx = getelementptr inbounds i8, ptr %1, i64 %indvars.iv
  %2 = load i8, ptr %arrayidx, align 1
  %3 = lshr i8 %2, 7
  %shr = zext nneg i8 %3 to i32
  %add = add i32 %result.08, %shr
  %indvars.iv.next = add nuw nsw i64 %indvars.iv, 1
  %exitcond.not = icmp eq i64 %indvars.iv.next, %wide.trip.count
  br i1 %exitcond.not, label %for.end, label %for.body, !llvm.loop !5

for.end:                                          ; preds = %for.body, %entry
  %result.0.lcssa = phi i32 [ 0, %entry ], [ %add, %for.body ]
  %add5 = add i32 %result.0.lcssa, %0
  ret i32 %add5
}